target datalayout = "e-m:e-p270:32:32-p271:32:32-p272:64:64-i64:64-i128:128-f80:128-n8:16:32:64-S128"
target triple = "x86_64-pc-linux-gnu"

%"class.OpenSubdiv::v3_6_0::Bfr::Parameterization" = type { i8, i8, i16 }
%"class.OpenSubdiv::v3_6_0::Bfr::Tessellation" = type { %"class.OpenSubdiv::v3_6_0::Bfr::Parameterization", i8, i16, i32, i32, i32, i32, i32, i32, [2 x i32], ptr, [4 x i32] }

; Function Attrs: mustprogress nounwind uwtable
define linkonce_odr void @_ZN10OpenSubdiv6v3_6_03Bfr16ParameterizationC2Ev(ptr noundef nonnull align 2 dereferenceable(4) %0) unnamed_addr #1 comdat align 2 {
  %2 = alloca ptr, align 8
  store ptr %0, ptr %2, align 8
  %3 = load ptr, ptr %2, align 8
  %4 = getelementptr inbounds nuw %"class.OpenSubdiv::v3_6_0::Bfr::Parameterization", ptr %3, i32 0, i32 0
  store i8 0, ptr %4, align 2
  %5 = getelementptr inbounds nuw %"class.OpenSubdiv::v3_6_0::Bfr::Parameterization", ptr %3, i32 0, i32 1
  store i8 0, ptr %5, align 1
  %6 = getelementptr inbounds nuw %"class.OpenSubdiv::v3_6_0::Bfr::Parameterization", ptr %3, i32 0, i32 2
  store i16 0, ptr %6, align 2
  ret void
}

; Function Attrs: mustprogress uwtable
define void @_ZN10OpenSubdiv6v3_6_03Bfr12TessellationC2ERKNS1_16ParameterizationEiPKiRKNS2_7OptionsE(ptr noundef nonnull align 8 dereferenceable(64) %0, ptr noundef nonnull align 2 dereferenceable(4) %1, i32 noundef %2, ptr noundef %3, ptr noundef nonnull align 4 dereferenceable(6) %4) unnamed_addr #0 align 2 {
  %6 = alloca ptr, align 8
  %7 = alloca ptr, align 8
  %8 = alloca i32, align 4
  %9 = alloca ptr, align 8
  %10 = alloca ptr, align 8
  store ptr %0, ptr %6, align 8
  store ptr %1, ptr %7, align 8
  store i32 %2, ptr %8, align 4
  store ptr %3, ptr %9, align 8
  store ptr %4, ptr %10, align 8
  %11 = load ptr, ptr %6, align 8
  %12 = getelementptr inbounds nuw %"class.OpenSubdiv::v3_6_0::Bfr::Tessellation", ptr %11, i32 0, i32 0
  call void @_ZN10OpenSubdiv6v3_6_03Bfr16ParameterizationC2Ev(ptr noundef nonnull align 2 dereferenceable(4) %12)
  %13 = load ptr, ptr %7, align 8
  %14 = load i32, ptr %8, align 4
  %15 = load ptr, ptr %9, align 8
  %16 = load ptr, ptr %10, align 8
  call void @_ZN10OpenSubdiv6v3_6_03Bfr12Tessellation10initializeERKNS1_16ParameterizationEiPKiRKNS2_7OptionsE(ptr noundef nonnull align 8 dereferenceable(64) %11, ptr noundef nonnull align 2 dereferenceable(4) %13, i32 noundef %14, ptr noundef %15, ptr noundef nonnull align 4 dereferenceable(6) %16)
  ret void
}