; Function Attrs: mustprogress uwtable
define void @_ZN10OpenSubdiv6v3_6_03Bfr12TessellationC2ERKNS1_16ParameterizationEiPKiRKNS2_7OptionsE(ptr noundef nonnull align 8 dereferenceable(64) %0, ptr nocapture noundef nonnull readonly align 2 dereferenceable(4) %1, i32 noundef %2, ptr nocapture noundef readonly %3, ptr nocapture noundef nonnull readonly align 4 dereferenceable(6) %4) unnamed_addr #0 align 2 {
  store i8 0, ptr %0, align 8
  %6 = getelementptr inbounds nuw i8, ptr %0, i64 1
  store i8 0, ptr %6, align 1
  %7 = getelementptr inbounds nuw i8, ptr %0, i64 2
  store i16 0, ptr %7, align 2
  tail call void @_ZN10OpenSubdiv6v3_6_03Bfr12Tessellation10initializeERKNS1_16ParameterizationEiPKiRKNS2_7OptionsE(ptr noundef nonnull align 8 dereferenceable(64) %0, ptr noundef nonnull align 2 dereferenceable(4) %1, i32 noundef %2, ptr noundef %3, ptr noundef nonnull align 4 dereferenceable(6) %4)
  ret void
}